target datalayout = "e-m:e-p270:32:32-p271:32:32-p272:64:64-i64:64-i128:128-f80:128-n8:16:32:64-S128"
target triple = "x86_64-pc-linux-gnu"

%struct.ParallelVacuumState = type { ptr, ptr, ptr, i32, ptr, ptr, ptr, ptr, ptr, ptr, i32, i32, i32, ptr, ptr, ptr, ptr, i32 }
%struct.PVShared = type { i32, i32, i64, double, i8, i32, i32, %struct.pg_atomic_uint32, %struct.pg_atomic_uint32, %struct.pg_atomic_uint32, i32, i64, %struct.VacDeadItemsInfo }
%struct.pg_atomic_uint32 = type { i32 }
%struct.VacDeadItemsInfo = type { i64, i64 }

; Function Attrs: nounwind uwtable
define dso_local ptr @parallel_vacuum_get_dead_items(ptr noundef %0, ptr noundef %1) #0 {
  %3 = alloca ptr, align 8
  %4 = alloca ptr, align 8
  store ptr %0, ptr %3, align 8
  store ptr %1, ptr %4, align 8
  %5 = load ptr, ptr %3, align 8
  %6 = getelementptr inbounds nuw %struct.ParallelVacuumState, ptr %5, i32 0, i32 4
  %7 = load ptr, ptr %6, align 8
  %8 = getelementptr inbounds nuw %struct.PVShared, ptr %7, i32 0, i32 12
  %9 = load ptr, ptr %4, align 8
  store ptr %8, ptr %9, align 8
  %10 = load ptr, ptr %3, align 8
  %11 = getelementptr inbounds nuw %struct.ParallelVacuumState, ptr %10, i32 0, i32 6
  %12 = load ptr, ptr %11, align 8
  ret ptr %12
}